target datalayout = "e-m:e-p270:32:32-p271:32:32-p272:64:64-i64:64-i128:128-f80:128-n8:16:32:64-S128"
target triple = "x86_64-pc-linux-gnu"

@nr_archivers = internal global i32 0, align 4
@alloc_archivers = internal global i32 0, align 4
@archivers = internal global ptr null, align 8
@.str.3 = private unnamed_addr constant [27 x i8] c"size_t overflow: %lu * %lu\00", align 1

; Function Attrs: inlinehint nounwind uwtable
define internal i64 @st_mult(i64 noundef %0, i64 noundef %1) #2 {
  %3 = alloca i64, align 8
  %4 = alloca i64, align 8
  store i64 %0, ptr %3, align 8, !tbaa !13
  store i64 %1, ptr %4, align 8, !tbaa !13
  %5 = load i64, ptr %3, align 8, !tbaa !13
  %6 = icmp ne i64 %5, 0
  br i1 %6, label %7, label %15

7:                                                ; preds = %2
  %8 = load i64, ptr %4, align 8, !tbaa !13
  %9 = load i64, ptr %3, align 8, !tbaa !13
  %10 = udiv i64 -1, %9
  %11 = icmp ugt i64 %8, %10
  br i1 %11, label %12, label %15

12:                                               ; preds = %7
  %13 = load i64, ptr %3, align 8, !tbaa !13
  %14 = load i64, ptr %4, align 8, !tbaa !13
  call void (ptr, ...) @die(ptr noundef @.str.3, i64 noundef %13, i64 noundef %14) #10
  unreachable

15:                                               ; preds = %7, %2
  %16 = load i64, ptr %3, align 8, !tbaa !13
  %17 = load i64, ptr %4, align 8, !tbaa !13
  %18 = mul i64 %16, %17
  ret i64 %18
}

; Function Attrs: nounwind uwtable
define dso_local void @register_archiver(ptr noundef %0) #0 {
  %2 = alloca ptr, align 8
  store ptr %0, ptr %2, align 8, !tbaa !4
  br label %3

3:                                                ; preds = %1
  %4 = load i32, ptr @nr_archivers, align 4, !tbaa !9
  %5 = add nsw i32 %4, 1
  %6 = load i32, ptr @alloc_archivers, align 4, !tbaa !9
  %7 = icmp sgt i32 %5, %6
  br i1 %7, label %8, label %30

8:                                                ; preds = %3
  %9 = load i32, ptr @alloc_archivers, align 4, !tbaa !9
  %10 = add nsw i32 %9, 16
  %11 = mul nsw i32 %10, 3
  %12 = sdiv i32 %11, 2
  %13 = load i32, ptr @nr_archivers, align 4, !tbaa !9
  %14 = add nsw i32 %13, 1
  %15 = icmp slt i32 %12, %14
  br i1 %15, label %16, label %19

16:                                               ; preds = %8
  %17 = load i32, ptr @nr_archivers, align 4, !tbaa !9
  %18 = add nsw i32 %17, 1
  store i32 %18, ptr @alloc_archivers, align 4, !tbaa !9
  br label %24

19:                                               ; preds = %8
  %20 = load i32, ptr @alloc_archivers, align 4, !tbaa !9
  %21 = add nsw i32 %20, 16
  %22 = mul nsw i32 %21, 3
  %23 = sdiv i32 %22, 2
  store i32 %23, ptr @alloc_archivers, align 4, !tbaa !9
  br label %24

24:                                               ; preds = %19, %16
  %25 = load ptr, ptr @archivers, align 8, !tbaa !11
  %26 = load i32, ptr @alloc_archivers, align 4, !tbaa !9
  %27 = sext i32 %26 to i64
  %28 = call i64 @st_mult(i64 noundef 8, i64 noundef %27)
  %29 = call ptr @xrealloc(ptr noundef %25, i64 noundef %28)
  store ptr %29, ptr @archivers, align 8, !tbaa !11
  br label %30

30:                                               ; preds = %24, %3
  br label %31

31:                                               ; preds = %30
  %32 = load ptr, ptr %2, align 8, !tbaa !4
  %33 = load ptr, ptr @archivers, align 8, !tbaa !11
  %34 = load i32, ptr @nr_archivers, align 4, !tbaa !9
  %35 = add nsw i32 %34, 1
  store i32 %35, ptr @nr_archivers, align 4, !tbaa !9
  %36 = sext i32 %34 to i64
  %37 = getelementptr inbounds ptr, ptr %33, i64 %36
  store ptr %32, ptr %37, align 8, !tbaa !4
  ret void
}