; Function Attrs: nounwind uwtable
define dso_local void @register_archiver(ptr noundef %0) local_unnamed_addr #0 {
  %2 = load i32, ptr @nr_archivers, align 4, !tbaa !4
  %3 = load i32, ptr @alloc_archivers, align 4, !tbaa !4
  %.not = icmp slt i32 %2, %3
  br i1 %.not, label %._crit_edge, label %4

._crit_edge:                                      ; preds = %1
  %.pre = load ptr, ptr @archivers, align 8, !tbaa !8
  br label %15

4:                                                ; preds = %1
  %5 = add nsw i32 %2, 1
  %6 = mul i32 %3, 3
  %7 = add i32 %6, 48
  %8 = sdiv i32 %7, 2
  %.not3 = icmp sgt i32 %8, %2
  %. = select i1 %.not3, i32 %8, i32 %5
  store i32 %., ptr @alloc_archivers, align 4, !tbaa !4
  %9 = sext i32 %. to i64
  %10 = icmp slt i32 %., 0
  br i1 %10, label %11, label %st_mult.exit

11:                                               ; preds = %4
  tail call void (ptr, ...) @die(ptr noundef nonnull @.str.3, i64 noundef 8, i64 noundef range(i64 -2147483648, 2147483648) %9) #18
  unreachable

st_mult.exit:                                     ; preds = %4
  %12 = load ptr, ptr @archivers, align 8, !tbaa !8
  %13 = shl nuw nsw i64 %9, 3
  %14 = tail call ptr @xrealloc(ptr noundef %12, i64 noundef %13) #19
  store ptr %14, ptr @archivers, align 8, !tbaa !8
  %.pre4 = load i32, ptr @nr_archivers, align 4, !tbaa !4
  br label %15

15:                                               ; preds = %._crit_edge, %st_mult.exit
  %16 = phi i32 [ %2, %._crit_edge ], [ %.pre4, %st_mult.exit ]
  %17 = phi ptr [ %.pre, %._crit_edge ], [ %14, %st_mult.exit ]
  %18 = add nsw i32 %16, 1
  store i32 %18, ptr @nr_archivers, align 4, !tbaa !4
  %19 = sext i32 %16 to i64
  %20 = getelementptr inbounds ptr, ptr %17, i64 %19
  store ptr %0, ptr %20, align 8, !tbaa !11
  ret void
}